target datalayout = "e-m:e-p270:32:32-p271:32:32-p272:64:64-i64:64-i128:128-f80:128-n8:16:32:64-S128"
target triple = "x86_64-pc-linux-gnu"

%struct.newhope_poly_st = type { [1024 x i16] }

; Function Attrs: nounwind uwtable
define hidden void @newhope_poly_pointwise(ptr noundef %0, ptr noundef %1, ptr noundef %2) #0 {
  %4 = alloca ptr, align 8
  %5 = alloca ptr, align 8
  %6 = alloca ptr, align 8
  %7 = alloca i64, align 8
  %8 = alloca i16, align 2
  store ptr %0, ptr %4, align 8, !tbaa !6
  store ptr %1, ptr %5, align 8, !tbaa !6
  store ptr %2, ptr %6, align 8, !tbaa !6
  call void @llvm.lifetime.start.p0(i64 8, ptr %7) #5
  store i64 0, ptr %7, align 8, !tbaa !21
  br label %9

9:                                                ; preds = %35, %3
  %10 = load i64, ptr %7, align 8, !tbaa !21
  %11 = icmp ult i64 %10, 1024
  br i1 %11, label %12, label %38

12:                                               ; preds = %9
  call void @llvm.lifetime.start.p0(i64 2, ptr %8) #5
  %13 = load ptr, ptr %6, align 8, !tbaa !6
  %14 = getelementptr inbounds nuw %struct.newhope_poly_st, ptr %13, i32 0, i32 0
  %15 = load i64, ptr %7, align 8, !tbaa !21
  %16 = getelementptr inbounds nuw [1024 x i16], ptr %14, i64 0, i64 %15
  %17 = load i16, ptr %16, align 2, !tbaa !16
  %18 = zext i16 %17 to i32
  %19 = mul nsw i32 3186, %18
  %20 = call zeroext i16 @newhope_montgomery_reduce(i32 noundef %19)
  store i16 %20, ptr %8, align 2, !tbaa !16
  %21 = load ptr, ptr %5, align 8, !tbaa !6
  %22 = getelementptr inbounds nuw %struct.newhope_poly_st, ptr %21, i32 0, i32 0
  %23 = load i64, ptr %7, align 8, !tbaa !21
  %24 = getelementptr inbounds nuw [1024 x i16], ptr %22, i64 0, i64 %23
  %25 = load i16, ptr %24, align 2, !tbaa !16
  %26 = zext i16 %25 to i32
  %27 = load i16, ptr %8, align 2, !tbaa !16
  %28 = zext i16 %27 to i32
  %29 = mul nsw i32 %26, %28
  %30 = call zeroext i16 @newhope_montgomery_reduce(i32 noundef %29)
  %31 = load ptr, ptr %4, align 8, !tbaa !6
  %32 = getelementptr inbounds nuw %struct.newhope_poly_st, ptr %31, i32 0, i32 0
  %33 = load i64, ptr %7, align 8, !tbaa !21
  %34 = getelementptr inbounds nuw [1024 x i16], ptr %32, i64 0, i64 %33
  store i16 %30, ptr %34, align 2, !tbaa !16
  call void @llvm.lifetime.end.p0(i64 2, ptr %8) #5
  br label %35

35:                                               ; preds = %12
  %36 = load i64, ptr %7, align 8, !tbaa !21
  %37 = add i64 %36, 1
  store i64 %37, ptr %7, align 8, !tbaa !21
  br label %9, !llvm.loop !26

38:                                               ; preds = %9
  call void @llvm.lifetime.end.p0(i64 8, ptr %7) #5
  ret void
}