; Function Attrs: nounwind uwtable
define hidden void @newhope_poly_pointwise(ptr noundef writeonly captures(none) %0, ptr noundef readonly captures(none) %1, ptr noundef readonly captures(none) %2) local_unnamed_addr #2 {
  br label %4

4:                                                ; preds = %3, %4
  %.08 = phi i64 [ 0, %3 ], [ %17, %4 ]
  %5 = getelementptr inbounds nuw [1024 x i16], ptr %2, i64 0, i64 %.08
  %6 = load i16, ptr %5, align 2, !tbaa !9
  %7 = zext i16 %6 to i32
  %8 = mul nuw nsw i32 %7, 3186
  %9 = tail call zeroext i16 @newhope_montgomery_reduce(i32 noundef %8) #6
  %10 = getelementptr inbounds nuw [1024 x i16], ptr %1, i64 0, i64 %.08
  %11 = load i16, ptr %10, align 2, !tbaa !9
  %12 = zext i16 %11 to i32
  %13 = zext i16 %9 to i32
  %14 = mul nuw nsw i32 %12, %13
  %15 = tail call zeroext i16 @newhope_montgomery_reduce(i32 noundef %14) #6
  %16 = getelementptr inbounds nuw [1024 x i16], ptr %0, i64 0, i64 %.08
  store i16 %15, ptr %16, align 2, !tbaa !9
  %17 = add nuw nsw i64 %.08, 1
  %exitcond.not = icmp eq i64 %17, 1024
  br i1 %exitcond.not, label %18, label %4, !llvm.loop !19

18:                                               ; preds = %4
  ret void
}